target datalayout = "e-m:e-p270:32:32-p271:32:32-p272:64:64-i64:64-i128:128-f80:128-n8:16:32:64-S128"
target triple = "x86_64-unknown-linux-gnu"

%struct.vhost_net = type { %struct.vhost_dev, [2 x %struct.vhost_virtqueue], i32, ptr }
%struct.vhost_dev = type { ptr, %struct.MemoryListener, %struct.MemoryListener, ptr, i32, ptr, i32, ptr, ptr, i32, i32, i32, i32, i64, i64, i64, i64, i64, i64, i8, i8, i64, ptr, ptr, ptr, ptr, %struct.anon, %struct.anon.1, %struct.IOMMUNotifier, ptr }
%struct.MemoryListener = type { ptr, ptr, ptr, ptr, ptr, ptr, ptr, ptr, ptr, ptr, ptr, ptr, ptr, ptr, ptr, ptr, ptr, i32, ptr, ptr, %union.anon, %union.anon.0 }
%union.anon = type { %struct.QTailQLink }
%struct.QTailQLink = type { ptr, ptr }
%union.anon.0 = type { %struct.QTailQLink }
%struct.anon = type { ptr, ptr }
%struct.anon.1 = type { ptr }
%struct.IOMMUNotifier = type { ptr, i32, i64, i64, i32, %struct.anon.2 }
%struct.anon.2 = type { ptr, ptr }
%struct.vhost_virtqueue = type { i32, i32, ptr, ptr, ptr, i32, i64, i32, i64, i32, i64, i32, %struct.EventNotifier, %struct.EventNotifier, %struct.EventNotifier, ptr }
%struct.EventNotifier = type { i32, i32, i8 }
%struct.VhostOps = type { i32, ptr, ptr, ptr, ptr, ptr, ptr, ptr, ptr, ptr, ptr, ptr, ptr, ptr, ptr, ptr, ptr, ptr, ptr, ptr, ptr, ptr, ptr, ptr, ptr, ptr, ptr, ptr, ptr, ptr, ptr, ptr, ptr, ptr, ptr, ptr, ptr, ptr, ptr, ptr, ptr, ptr, ptr, ptr, ptr, ptr, ptr, ptr, ptr }

; Function Attrs: nounwind sspstrong uwtable
define dso_local i32 @vhost_net_set_mtu(ptr noundef %net, i16 noundef zeroext %mtu) #0 {
entry:
  %retval = alloca i32, align 4
  %net.addr = alloca ptr, align 8
  %mtu.addr = alloca i16, align 2
  %vhost_ops = alloca ptr, align 8
  store ptr %net, ptr %net.addr, align 8
  store i16 %mtu, ptr %mtu.addr, align 2
  %0 = load ptr, ptr %net.addr, align 8
  %dev = getelementptr inbounds %struct.vhost_net, ptr %0, i32 0, i32 0
  %vhost_ops1 = getelementptr inbounds %struct.vhost_dev, ptr %dev, i32 0, i32 23
  %1 = load ptr, ptr %vhost_ops1, align 8
  store ptr %1, ptr %vhost_ops, align 8
  %2 = load ptr, ptr %vhost_ops, align 8
  %vhost_net_set_mtu = getelementptr inbounds %struct.VhostOps, ptr %2, i32 0, i32 6
  %3 = load ptr, ptr %vhost_net_set_mtu, align 8
  %tobool = icmp ne ptr %3, null
  br i1 %tobool, label %if.end, label %if.then

if.then:                                          ; preds = %entry
  store i32 0, ptr %retval, align 4
  br label %return

if.end:                                           ; preds = %entry
  %4 = load ptr, ptr %vhost_ops, align 8
  %vhost_net_set_mtu2 = getelementptr inbounds %struct.VhostOps, ptr %4, i32 0, i32 6
  %5 = load ptr, ptr %vhost_net_set_mtu2, align 8
  %6 = load ptr, ptr %net.addr, align 8
  %dev3 = getelementptr inbounds %struct.vhost_net, ptr %6, i32 0, i32 0
  %7 = load i16, ptr %mtu.addr, align 2
  %call = call i32 %5(ptr noundef %dev3, i16 noundef zeroext %7)
  store i32 %call, ptr %retval, align 4
  br label %return

return:                                           ; preds = %if.end, %if.then
  %8 = load i32, ptr %retval, align 4
  ret i32 %8
}