; Function Attrs: nounwind sspstrong uwtable
define dso_local i32 @vhost_net_set_mtu(ptr noundef %net, i16 noundef zeroext %mtu) local_unnamed_addr #0 {
entry:
  %vhost_ops1 = getelementptr inbounds nuw i8, ptr %net, i64 528
  %0 = load ptr, ptr %vhost_ops1, align 8
  %vhost_net_set_mtu = getelementptr inbounds nuw i8, ptr %0, i64 48
  %1 = load ptr, ptr %vhost_net_set_mtu, align 8
  %tobool.not = icmp eq ptr %1, null
  br i1 %tobool.not, label %return, label %if.end

if.end:                                           ; preds = %entry
  %call = tail call i32 %1(ptr noundef nonnull %net, i16 noundef zeroext %mtu) #11
  br label %return

return:                                           ; preds = %entry, %if.end
  %retval.0 = phi i32 [ %call, %if.end ], [ 0, %entry ]
  ret i32 %retval.0
}